target datalayout = "e-m:e-p270:32:32-p271:32:32-p272:64:64-i64:64-i128:128-f80:128-n8:16:32:64-S128"
target triple = "x86_64-pc-linux-gnu"

%struct.WalWriteMethod = type { ptr, i32, i32, i8, ptr, i32 }
%struct.TarMethodData = type { %struct.WalWriteMethod, ptr, i32, ptr, ptr, ptr }

; Function Attrs: nounwind uwtable
define internal void @tar_free(ptr noundef %0) #0 {
  %2 = alloca ptr, align 8
  %3 = alloca ptr, align 8
  store ptr %0, ptr %2, align 8
  call void @llvm.lifetime.start.p0(i64 8, ptr %3) #9
  %4 = load ptr, ptr %2, align 8
  store ptr %4, ptr %3, align 8
  %5 = load ptr, ptr %3, align 8
  %6 = getelementptr inbounds nuw %struct.TarMethodData, ptr %5, i32 0, i32 1
  %7 = load ptr, ptr %6, align 8
  call void @pg_free(ptr noundef %7)
  %8 = load ptr, ptr %2, align 8
  %9 = getelementptr inbounds nuw %struct.WalWriteMethod, ptr %8, i32 0, i32 1
  %10 = load i32, ptr %9, align 8
  %11 = icmp eq i32 %10, 1
  br i1 %11, label %12, label %16

12:                                               ; preds = %1
  %13 = load ptr, ptr %3, align 8
  %14 = getelementptr inbounds nuw %struct.TarMethodData, ptr %13, i32 0, i32 5
  %15 = load ptr, ptr %14, align 8
  call void @pg_free(ptr noundef %15)
  br label %16

16:                                               ; preds = %12, %1
  %17 = load ptr, ptr %2, align 8
  call void @pg_free(ptr noundef %17)
  call void @llvm.lifetime.end.p0(i64 8, ptr %3) #9
  ret void
}