; Function Attrs: nounwind uwtable
define internal void @tar_free(ptr noundef %0) #0 {
  %2 = getelementptr inbounds nuw i8, ptr %0, i64 40
  %3 = load ptr, ptr %2, align 8
  tail call void @pg_free(ptr noundef %3) #12
  %4 = getelementptr inbounds nuw i8, ptr %0, i64 8
  %5 = load i32, ptr %4, align 8
  %6 = icmp eq i32 %5, 1
  br i1 %6, label %7, label %10

7:                                                ; preds = %1
  %8 = getelementptr inbounds nuw i8, ptr %0, i64 72
  %9 = load ptr, ptr %8, align 8
  tail call void @pg_free(ptr noundef %9) #12
  br label %10

10:                                               ; preds = %7, %1
  tail call void @pg_free(ptr noundef nonnull %0) #12
  ret void
}